; Function Attrs: mustprogress uwtable
define hidden noundef zeroext i1 @_ZN12mpbq_manager14select_integerERK4mpbqS2_R3mpz(ptr noundef nonnull align 8 dereferenceable(208) %0, ptr noundef nonnull align 8 dereferenceable(20) %1, ptr noundef nonnull align 8 dereferenceable(20) %2, ptr noundef nonnull align 8 dereferenceable(16) %3) local_unnamed_addr #3 align 2 {
  %5 = getelementptr inbounds nuw i8, ptr %1, i64 16
  %6 = load i32, ptr %5, align 8, !tbaa !13
  %7 = icmp eq i32 %6, 0
  br i1 %7, label %8, label %20

8:                                                ; preds = %4
  %9 = getelementptr inbounds nuw i8, ptr %1, i64 4
  %10 = load i8, ptr %9, align 4
  %11 = and i8 %10, 1
  %12 = icmp eq i8 %11, 0
  br i1 %12, label %13, label %18

13:                                               ; preds = %8
  %14 = load i32, ptr %1, align 8, !tbaa !3
  store i32 %14, ptr %3, align 8, !tbaa !3
  %15 = getelementptr inbounds nuw i8, ptr %3, i64 4
  %16 = load i8, ptr %15, align 4
  %17 = and i8 %16, -2
  store i8 %17, ptr %15, align 4
  br label %_ZN11mpz_managerILb0EE3setER3mpzRKS1_.exit

18:                                               ; preds = %8
  %19 = load ptr, ptr %0, align 8, !tbaa !26
  tail call void @_ZN11mpz_managerILb0EE7big_setER3mpzRKS1_(ptr noundef nonnull align 8 dereferenceable(600) %19, ptr noundef nonnull align 8 dereferenceable(16) %3, ptr noundef nonnull align 8 dereferenceable(16) %1)
  br label %_ZN11mpz_managerILb0EE3setER3mpzRKS1_.exit

20:                                               ; preds = %4
  %21 = getelementptr inbounds nuw i8, ptr %2, i64 16
  %22 = load i32, ptr %21, align 8, !tbaa !13
  %23 = icmp eq i32 %22, 0
  br i1 %23, label %24, label %36

24:                                               ; preds = %20
  %25 = getelementptr inbounds nuw i8, ptr %2, i64 4
  %26 = load i8, ptr %25, align 4
  %27 = and i8 %26, 1
  %28 = icmp eq i8 %27, 0
  br i1 %28, label %29, label %34

29:                                               ; preds = %24
  %30 = load i32, ptr %2, align 8, !tbaa !3
  store i32 %30, ptr %3, align 8, !tbaa !3
  %31 = getelementptr inbounds nuw i8, ptr %3, i64 4
  %32 = load i8, ptr %31, align 4
  %33 = and i8 %32, -2
  store i8 %33, ptr %31, align 4
  br label %_ZN11mpz_managerILb0EE3setER3mpzRKS1_.exit

34:                                               ; preds = %24
  %35 = load ptr, ptr %0, align 8, !tbaa !26
  tail call void @_ZN11mpz_managerILb0EE7big_setER3mpzRKS1_(ptr noundef nonnull align 8 dereferenceable(600) %35, ptr noundef nonnull align 8 dereferenceable(16) %3, ptr noundef nonnull align 8 dereferenceable(16) %2)
  br label %_ZN11mpz_managerILb0EE3setER3mpzRKS1_.exit

36:                                               ; preds = %20
  %37 = getelementptr inbounds nuw i8, ptr %0, i64 64
  %38 = getelementptr inbounds nuw i8, ptr %0, i64 80
  %39 = load ptr, ptr %0, align 8, !tbaa !26
  tail call void @_ZN12mpbq_manager4ceilI11mpz_managerILb0EEEEvRT_RK4mpbqR3mpz(ptr noundef nonnull align 8 dereferenceable(208) %0, ptr noundef nonnull align 8 dereferenceable(600) %39, ptr noundef nonnull align 8 dereferenceable(20) %1, ptr noundef nonnull align 8 dereferenceable(16) %37)
  %40 = load ptr, ptr %0, align 8, !tbaa !26
  tail call void @_ZN12mpbq_manager5floorI11mpz_managerILb0EEEEvRT_RK4mpbqR3mpz(ptr noundef nonnull align 8 dereferenceable(208) %0, ptr noundef nonnull align 8 dereferenceable(600) %40, ptr noundef nonnull align 8 dereferenceable(20) %2, ptr noundef nonnull align 8 dereferenceable(16) %38)
  %41 = load ptr, ptr %0, align 8, !tbaa !26
  %42 = getelementptr inbounds nuw i8, ptr %0, i64 84
  %43 = load i8, ptr %42, align 4
  %44 = and i8 %43, 1
  %45 = icmp eq i8 %44, 0
  br i1 %45, label %46, label %_ZN11mpz_managerILb0EE2leERK3mpzS3_.exit

46:                                               ; preds = %36
  %47 = getelementptr inbounds nuw i8, ptr %0, i64 68
  %48 = load i8, ptr %47, align 4
  %49 = and i8 %48, 1
  %50 = icmp eq i8 %49, 0
  br i1 %50, label %51, label %_ZN11mpz_managerILb0EE2leERK3mpzS3_.exit

51:                                               ; preds = %46
  %52 = load i32, ptr %38, align 8, !tbaa !3
  %53 = load i32, ptr %37, align 8, !tbaa !3
  %54 = icmp slt i32 %52, %53
  br i1 %54, label %_ZN11mpz_managerILb0EE3setER3mpzRKS1_.exit, label %57

_ZN11mpz_managerILb0EE2leERK3mpzS3_.exit:         ; preds = %36, %46
  %55 = tail call noundef i32 @_ZN11mpz_managerILb0EE11big_compareERK3mpzS3_(ptr noundef nonnull align 8 dereferenceable(600) %41, ptr noundef nonnull align 8 dereferenceable(16) %38, ptr noundef nonnull align 8 dereferenceable(16) %37)
  %56 = icmp slt i32 %55, 0
  br i1 %56, label %_ZN11mpz_managerILb0EE3setER3mpzRKS1_.exit, label %57

57:                                               ; preds = %51, %_ZN11mpz_managerILb0EE2leERK3mpzS3_.exit
  %58 = getelementptr inbounds nuw i8, ptr %0, i64 68
  %59 = load i8, ptr %58, align 4
  %60 = and i8 %59, 1
  %61 = icmp eq i8 %60, 0
  br i1 %61, label %62, label %67

62:                                               ; preds = %57
  %63 = load i32, ptr %37, align 8, !tbaa !3
  store i32 %63, ptr %3, align 8, !tbaa !3
  %64 = getelementptr inbounds nuw i8, ptr %3, i64 4
  %65 = load i8, ptr %64, align 4
  %66 = and i8 %65, -2
  store i8 %66, ptr %64, align 4
  br label %_ZN11mpz_managerILb0EE3setER3mpzRKS1_.exit

67:                                               ; preds = %57
  %68 = load ptr, ptr %0, align 8, !tbaa !26
  tail call void @_ZN11mpz_managerILb0EE7big_setER3mpzRKS1_(ptr noundef nonnull align 8 dereferenceable(600) %68, ptr noundef nonnull align 8 dereferenceable(16) %3, ptr noundef nonnull align 8 dereferenceable(16) %37)
  br label %_ZN11mpz_managerILb0EE3setER3mpzRKS1_.exit

_ZN11mpz_managerILb0EE3setER3mpzRKS1_.exit:       ; preds = %51, %67, %62, %34, %29, %18, %13, %_ZN11mpz_managerILb0EE2leERK3mpzS3_.exit
  %.0 = phi i1 [ false, %_ZN11mpz_managerILb0EE2leERK3mpzS3_.exit ], [ true, %13 ], [ true, %18 ], [ true, %29 ], [ true, %34 ], [ true, %62 ], [ true, %67 ], [ false, %51 ]
  ret i1 %.0
}